target datalayout = "e-m:e-p270:32:32-p271:32:32-p272:64:64-i64:64-i128:128-f80:128-n8:16:32:64-S128"
target triple = "x86_64-pc-linux-gnu"

; Function Attrs: inlinehint nounwind uwtable
define internal i64 @rnd_avg64(i64 noundef %0, i64 noundef %1) #5 {
  %3 = alloca i64, align 8
  %4 = alloca i64, align 8
  store i64 %0, ptr %3, align 8, !tbaa !12
  store i64 %1, ptr %4, align 8, !tbaa !12
  %5 = load i64, ptr %3, align 8, !tbaa !12
  %6 = load i64, ptr %4, align 8, !tbaa !12
  %7 = or i64 %5, %6
  %8 = load i64, ptr %3, align 8, !tbaa !12
  %9 = load i64, ptr %4, align 8, !tbaa !12
  %10 = xor i64 %8, %9
  %11 = and i64 %10, -281479271743490
  %12 = lshr i64 %11, 1
  %13 = sub i64 %7, %12
  ret i64 %13
}

; Function Attrs: alwaysinline nounwind uwtable
define internal void @avg_c(ptr noalias noundef %0, i64 noundef %1, ptr noalias noundef %2, i64 noundef %3, i32 noundef %4, i32 noundef %5) #6 {
  %7 = alloca ptr, align 8
  %8 = alloca i64, align 8
  %9 = alloca ptr, align 8
  %10 = alloca i64, align 8
  %11 = alloca i32, align 4
  %12 = alloca i32, align 4
  %13 = alloca ptr, align 8
  %14 = alloca ptr, align 8
  %15 = alloca i32, align 4
  store ptr %0, ptr %7, align 8, !tbaa !10
  store i64 %1, ptr %8, align 8, !tbaa !12
  store ptr %2, ptr %9, align 8, !tbaa !10
  store i64 %3, ptr %10, align 8, !tbaa !12
  store i32 %4, ptr %11, align 4, !tbaa !19
  store i32 %5, ptr %12, align 4, !tbaa !19
  call void @llvm.lifetime.start.p0(i64 8, ptr %13) #9
  %16 = load ptr, ptr %7, align 8, !tbaa !10
  store ptr %16, ptr %13, align 8, !tbaa !14
  call void @llvm.lifetime.start.p0(i64 8, ptr %14) #9
  %17 = load ptr, ptr %9, align 8, !tbaa !10
  store ptr %17, ptr %14, align 8, !tbaa !14
  %18 = load i64, ptr %8, align 8, !tbaa !12
  %19 = udiv i64 %18, 2
  store i64 %19, ptr %8, align 8, !tbaa !12
  %20 = load i64, ptr %10, align 8, !tbaa !12
  %21 = udiv i64 %20, 2
  store i64 %21, ptr %10, align 8, !tbaa !12
  br label %22

22:                                               ; preds = %53, %6
  call void @llvm.lifetime.start.p0(i64 4, ptr %15) #9
  store i32 0, ptr %15, align 4, !tbaa !19
  br label %23

23:                                               ; preds = %43, %22
  %24 = load i32, ptr %15, align 4, !tbaa !19
  %25 = load i32, ptr %11, align 4, !tbaa !19
  %26 = icmp slt i32 %24, %25
  br i1 %26, label %27, label %46

27:                                               ; preds = %23
  %28 = load ptr, ptr %13, align 8, !tbaa !14
  %29 = load i32, ptr %15, align 4, !tbaa !19
  %30 = sext i32 %29 to i64
  %31 = getelementptr inbounds i16, ptr %28, i64 %30
  %32 = load i64, ptr %31, align 8, !tbaa !16
  %33 = load ptr, ptr %14, align 8, !tbaa !14
  %34 = load i32, ptr %15, align 4, !tbaa !19
  %35 = sext i32 %34 to i64
  %36 = getelementptr inbounds i16, ptr %33, i64 %35
  %37 = load i64, ptr %36, align 1, !tbaa !16
  %38 = call i64 @rnd_avg64(i64 noundef %32, i64 noundef %37)
  %39 = load ptr, ptr %13, align 8, !tbaa !14
  %40 = load i32, ptr %15, align 4, !tbaa !19
  %41 = sext i32 %40 to i64
  %42 = getelementptr inbounds i16, ptr %39, i64 %41
  store i64 %38, ptr %42, align 8, !tbaa !16
  br label %43

43:                                               ; preds = %27
  %44 = load i32, ptr %15, align 4, !tbaa !19
  %45 = add nsw i32 %44, 4
  store i32 %45, ptr %15, align 4, !tbaa !19
  br label %23, !llvm.loop !94

46:                                               ; preds = %23
  %47 = load i64, ptr %8, align 8, !tbaa !12
  %48 = load ptr, ptr %13, align 8, !tbaa !14
  %49 = getelementptr inbounds i16, ptr %48, i64 %47
  store ptr %49, ptr %13, align 8, !tbaa !14
  %50 = load i64, ptr %10, align 8, !tbaa !12
  %51 = load ptr, ptr %14, align 8, !tbaa !14
  %52 = getelementptr inbounds i16, ptr %51, i64 %50
  store ptr %52, ptr %14, align 8, !tbaa !14
  call void @llvm.lifetime.end.p0(i64 4, ptr %15) #9
  br label %53

53:                                               ; preds = %46
  %54 = load i32, ptr %12, align 4, !tbaa !19
  %55 = add nsw i32 %54, -1
  store i32 %55, ptr %12, align 4, !tbaa !19
  %56 = icmp ne i32 %55, 0
  br i1 %56, label %22, label %57, !llvm.loop !95

57:                                               ; preds = %53
  call void @llvm.lifetime.end.p0(i64 8, ptr %14) #9
  call void @llvm.lifetime.end.p0(i64 8, ptr %13) #9
  ret void
}

; Function Attrs: nounwind uwtable
define internal void @avg8_c(ptr noundef %0, i64 noundef %1, ptr noundef %2, i64 noundef %3, i32 noundef %4, i32 noundef %5, i32 noundef %6) #1 {
  %8 = alloca ptr, align 8
  %9 = alloca i64, align 8
  %10 = alloca ptr, align 8
  %11 = alloca i64, align 8
  %12 = alloca i32, align 4
  %13 = alloca i32, align 4
  %14 = alloca i32, align 4
  store ptr %0, ptr %8, align 8, !tbaa !10
  store i64 %1, ptr %9, align 8, !tbaa !12
  store ptr %2, ptr %10, align 8, !tbaa !10
  store i64 %3, ptr %11, align 8, !tbaa !12
  store i32 %4, ptr %12, align 4, !tbaa !19
  store i32 %5, ptr %13, align 4, !tbaa !19
  store i32 %6, ptr %14, align 4, !tbaa !19
  %15 = load ptr, ptr %8, align 8, !tbaa !10
  %16 = load i64, ptr %9, align 8, !tbaa !12
  %17 = load ptr, ptr %10, align 8, !tbaa !10
  %18 = load i64, ptr %11, align 8, !tbaa !12
  %19 = load i32, ptr %12, align 4, !tbaa !19
  call void @avg_c(ptr noundef %15, i64 noundef %16, ptr noundef %17, i64 noundef %18, i32 noundef 8, i32 noundef %19)
  ret void
}