; Function Attrs: nofree norecurse nosync nounwind memory(argmem: readwrite, inaccessiblemem: readwrite) uwtable
define internal void @avg8_c(ptr noundef captures(none) %0, i64 noundef %1, ptr noundef readonly captures(none) %2, i64 noundef %3, i32 noundef %4, i32 %5, i32 %6) #5 {
  tail call void @llvm.experimental.noalias.scope.decl(metadata !117)
  tail call void @llvm.experimental.noalias.scope.decl(metadata !120)
  %8 = lshr i64 %1, 1
  %9 = lshr i64 %3, 1
  br label %.critedge

.critedge:                                        ; preds = %.critedge, %7
  %.019.i = phi i32 [ %4, %7 ], [ %28, %.critedge ]
  %.018.i = phi ptr [ %0, %7 ], [ %26, %.critedge ]
  %.017.i = phi ptr [ %2, %7 ], [ %27, %.critedge ]
  %10 = load i64, ptr %.018.i, align 8, !tbaa !8, !alias.scope !117, !noalias !120
  %11 = load i64, ptr %.017.i, align 1, !tbaa !8, !alias.scope !120, !noalias !117
  %12 = or i64 %11, %10
  %13 = xor i64 %11, %10
  %14 = lshr i64 %13, 1
  %15 = and i64 %14, 9223231297218904063
  %16 = sub i64 %12, %15
  store i64 %16, ptr %.018.i, align 8, !tbaa !8, !alias.scope !117, !noalias !120
  %17 = getelementptr inbounds nuw i8, ptr %.018.i, i64 8
  %18 = load i64, ptr %17, align 8, !tbaa !8, !alias.scope !117, !noalias !120
  %19 = getelementptr inbounds nuw i8, ptr %.017.i, i64 8
  %20 = load i64, ptr %19, align 1, !tbaa !8, !alias.scope !120, !noalias !117
  %21 = or i64 %20, %18
  %22 = xor i64 %20, %18
  %23 = lshr i64 %22, 1
  %24 = and i64 %23, 9223231297218904063
  %25 = sub i64 %21, %24
  store i64 %25, ptr %17, align 8, !tbaa !8, !alias.scope !117, !noalias !120
  %26 = getelementptr inbounds nuw i16, ptr %.018.i, i64 %8
  %27 = getelementptr inbounds nuw i16, ptr %.017.i, i64 %9
  %28 = add nsw i32 %.019.i, -1
  %.not.i = icmp eq i32 %28, 0
  br i1 %.not.i, label %avg_c.exit, label %.critedge, !llvm.loop !94

avg_c.exit:                                       ; preds = %.critedge
  ret void
}